; Function Attrs: inlinehint mustprogress nounwind uwtable
define internal void @_ZN12_GLOBAL__N_123propagate_values_tacticD0Ev(ptr noundef nonnull align 8 dereferenceable(120) initializes((0, 8)) %0) unnamed_addr #5 align 2 personality ptr @__gxx_personality_v0 {
  store ptr getelementptr inbounds nuw inrange(-16, 192) (i8, ptr @_ZTVN12_GLOBAL__N_123propagate_values_tacticE, i64 16), ptr %0, align 8, !tbaa !9
  %2 = getelementptr inbounds nuw i8, ptr %0, i64 112
  tail call void @_ZN10params_refD1Ev(ptr noundef nonnull align 8 dereferenceable(8) %2) #20
  %3 = getelementptr inbounds nuw i8, ptr %0, i64 56
  tail call void @_ZN11shared_occsD1Ev(ptr noundef nonnull align 8 dereferenceable(40) %3) #20
  %4 = getelementptr inbounds nuw i8, ptr %0, i64 40
  %5 = load ptr, ptr %4, align 8, !tbaa !43
  %6 = icmp eq ptr %5, null
  br i1 %6, label %_ZN12_GLOBAL__N_123propagate_values_tacticD2Ev.exit, label %7

7:                                                ; preds = %1
  tail call void @_ZN17expr_substitutionD1Ev(ptr noundef nonnull align 8 dereferenceable(49) %5) #20
  invoke void @_ZN6memory10deallocateEPv(ptr noundef nonnull %5)
          to label %_ZN12_GLOBAL__N_123propagate_values_tacticD2Ev.exit unwind label %8

8:                                                ; preds = %7
  %9 = landingpad { ptr, i32 }
          catch ptr null
  %10 = extractvalue { ptr, i32 } %9, 0
  tail call void @__clang_call_terminate(ptr %10) #21
  unreachable

_ZN12_GLOBAL__N_123propagate_values_tacticD2Ev.exit: ; preds = %1, %7
  %11 = getelementptr inbounds nuw i8, ptr %0, i64 24
  tail call void @_ZN11th_rewriterD1Ev(ptr noundef nonnull align 8 dereferenceable(16) %11) #20
  tail call void @_ZdlPvm(ptr noundef nonnull %0, i64 noundef 120) #22
  ret void
}